target datalayout = "e-m:e-p270:32:32-p271:32:32-p272:64:64-i64:64-i128:128-f80:128-n8:16:32:64-S128"
target triple = "x86_64-pc-linux-gnu"

%"class.llvm::Twine" = type <{ %"union.llvm::Twine::Child", %"union.llvm::Twine::Child", i8, i8, [6 x i8] }>
%"union.llvm::Twine::Child" = type { %struct.anon }
%struct.anon = type { ptr, i64 }

@.str.43 = private unnamed_addr constant [7 x i8] c"_MAX__\00", align 1
@.str.441 = private unnamed_addr constant [9 x i8] c"_WIDTH__\00", align 1

; Function Attrs: mustprogress nounwind uwtable
define linkonce_odr hidden noundef zeroext i1 @_ZNK4llvm5Twine9isNullaryEv(ptr noundef nonnull align 8 dereferenceable(34) %0) #0 comdat align 2 {
  %2 = alloca ptr, align 8
  store ptr %0, ptr %2, align 8
  %3 = load ptr, ptr %2, align 8
  %4 = call noundef zeroext i1 @_ZNK4llvm5Twine6isNullEv(ptr noundef nonnull align 8 dereferenceable(34) %3)
  br i1 %4, label %7, label %5

5:                                                ; preds = %1
  %6 = call noundef zeroext i1 @_ZNK4llvm5Twine7isEmptyEv(ptr noundef nonnull align 8 dereferenceable(34) %3)
  br label %7

7:                                                ; preds = %5, %1
  %8 = phi i1 [ true, %1 ], [ %6, %5 ]
  ret i1 %8
}

; Function Attrs: mustprogress nounwind uwtable
define linkonce_odr hidden noundef zeroext i8 @_ZNK4llvm5Twine10getRHSKindEv(ptr noundef nonnull align 8 dereferenceable(34) %0) #0 comdat align 2 {
  %2 = alloca ptr, align 8
  store ptr %0, ptr %2, align 8
  %3 = load ptr, ptr %2, align 8
  %4 = getelementptr inbounds nuw %"class.llvm::Twine", ptr %3, i32 0, i32 3
  %5 = load i8, ptr %4, align 1
  ret i8 %5
}

; Function Attrs: mustprogress nounwind uwtable
define linkonce_odr hidden void @_ZN4llvm5TwineC2ENS0_5ChildENS0_8NodeKindES1_S2_(ptr noundef nonnull align 8 dereferenceable(34) %0, ptr %1, i64 %2, i8 noundef zeroext %3, ptr %4, i64 %5, i8 noundef zeroext %6) unnamed_addr #0 comdat align 2 {
  %8 = alloca %"union.llvm::Twine::Child", align 8
  %9 = alloca %"union.llvm::Twine::Child", align 8
  %10 = alloca ptr, align 8
  %11 = alloca i8, align 1
  %12 = alloca i8, align 1
  %13 = getelementptr inbounds nuw { ptr, i64 }, ptr %8, i32 0, i32 0
  store ptr %1, ptr %13, align 8
  %14 = getelementptr inbounds nuw { ptr, i64 }, ptr %8, i32 0, i32 1
  store i64 %2, ptr %14, align 8
  %15 = getelementptr inbounds nuw { ptr, i64 }, ptr %9, i32 0, i32 0
  store ptr %4, ptr %15, align 8
  %16 = getelementptr inbounds nuw { ptr, i64 }, ptr %9, i32 0, i32 1
  store i64 %5, ptr %16, align 8
  store ptr %0, ptr %10, align 8
  store i8 %3, ptr %11, align 1
  store i8 %6, ptr %12, align 1
  %17 = load ptr, ptr %10, align 8
  %18 = getelementptr inbounds nuw %"class.llvm::Twine", ptr %17, i32 0, i32 0
  call void @llvm.memcpy.p0.p0.i64(ptr align 8 %18, ptr align 8 %8, i64 16, i1 false)
  %19 = getelementptr inbounds nuw %"class.llvm::Twine", ptr %17, i32 0, i32 1
  call void @llvm.memcpy.p0.p0.i64(ptr align 8 %19, ptr align 8 %9, i64 16, i1 false)
  %20 = getelementptr inbounds nuw %"class.llvm::Twine", ptr %17, i32 0, i32 2
  %21 = load i8, ptr %11, align 1
  store i8 %21, ptr %20, align 8
  %22 = getelementptr inbounds nuw %"class.llvm::Twine", ptr %17, i32 0, i32 3
  %23 = load i8, ptr %12, align 1
  store i8 %23, ptr %22, align 1
  ret void
}

; Function Attrs: mustprogress nounwind uwtable
define linkonce_odr hidden noundef zeroext i8 @_ZNK4llvm5Twine10getLHSKindEv(ptr noundef nonnull align 8 dereferenceable(34) %0) #0 comdat align 2 {
  %2 = alloca ptr, align 8
  store ptr %0, ptr %2, align 8
  %3 = load ptr, ptr %2, align 8
  %4 = getelementptr inbounds nuw %"class.llvm::Twine", ptr %3, i32 0, i32 2
  %5 = load i8, ptr %4, align 8
  ret i8 %5
}

; Function Attrs: mustprogress nounwind uwtable
define linkonce_odr hidden noundef zeroext i1 @_ZNK4llvm5Twine7isUnaryEv(ptr noundef nonnull align 8 dereferenceable(34) %0) #0 comdat align 2 {
  %2 = alloca ptr, align 8
  store ptr %0, ptr %2, align 8
  %3 = load ptr, ptr %2, align 8
  %4 = call noundef zeroext i8 @_ZNK4llvm5Twine10getRHSKindEv(ptr noundef nonnull align 8 dereferenceable(34) %3)
  %5 = zext i8 %4 to i32
  %6 = icmp eq i32 %5, 1
  br i1 %6, label %7, label %10

7:                                                ; preds = %1
  %8 = call noundef zeroext i1 @_ZNK4llvm5Twine9isNullaryEv(ptr noundef nonnull align 8 dereferenceable(34) %3)
  %9 = xor i1 %8, true
  br label %10

10:                                               ; preds = %7, %1
  %11 = phi i1 [ false, %1 ], [ %9, %7 ]
  ret i1 %11
}

; Function Attrs: mustprogress nounwind uwtable
define linkonce_odr hidden noundef zeroext i1 @_ZNK4llvm5Twine7isEmptyEv(ptr noundef nonnull align 8 dereferenceable(34) %0) #0 comdat align 2 {
  %2 = alloca ptr, align 8
  store ptr %0, ptr %2, align 8
  %3 = load ptr, ptr %2, align 8
  %4 = call noundef zeroext i8 @_ZNK4llvm5Twine10getLHSKindEv(ptr noundef nonnull align 8 dereferenceable(34) %3)
  %5 = zext i8 %4 to i32
  %6 = icmp eq i32 %5, 1
  ret i1 %6
}

; Function Attrs: mustprogress nounwind uwtable
define linkonce_odr hidden void @_ZN4llvm5TwineC2ENS0_8NodeKindE(ptr noundef nonnull align 8 dereferenceable(34) %0, i8 noundef zeroext %1) unnamed_addr #0 comdat align 2 {
  %3 = alloca ptr, align 8
  %4 = alloca i8, align 1
  store ptr %0, ptr %3, align 8
  store i8 %1, ptr %4, align 1
  %5 = load ptr, ptr %3, align 8
  %6 = getelementptr inbounds nuw %"class.llvm::Twine", ptr %5, i32 0, i32 2
  %7 = load i8, ptr %4, align 1
  store i8 %7, ptr %6, align 8
  %8 = getelementptr inbounds nuw %"class.llvm::Twine", ptr %5, i32 0, i32 3
  store i8 1, ptr %8, align 1
  ret void
}

; Function Attrs: mustprogress nounwind uwtable
define linkonce_odr hidden noundef zeroext i1 @_ZNK4llvm5Twine6isNullEv(ptr noundef nonnull align 8 dereferenceable(34) %0) #0 comdat align 2 {
  %2 = alloca ptr, align 8
  store ptr %0, ptr %2, align 8
  %3 = load ptr, ptr %2, align 8
  %4 = call noundef zeroext i8 @_ZNK4llvm5Twine10getLHSKindEv(ptr noundef nonnull align 8 dereferenceable(34) %3)
  %5 = zext i8 %4 to i32
  %6 = icmp eq i32 %5, 0
  ret i1 %6
}

; Function Attrs: mustprogress nounwind uwtable
define linkonce_odr hidden void @_ZN4llvm5TwineC2Ej(ptr noundef nonnull align 8 dereferenceable(34) %0, i32 noundef %1) unnamed_addr #0 comdat align 2 {
  %3 = alloca ptr, align 8
  %4 = alloca i32, align 4
  store ptr %0, ptr %3, align 8
  store i32 %1, ptr %4, align 4
  %5 = load ptr, ptr %3, align 8
  %6 = getelementptr inbounds nuw %"class.llvm::Twine", ptr %5, i32 0, i32 2
  store i8 9, ptr %6, align 8
  %7 = getelementptr inbounds nuw %"class.llvm::Twine", ptr %5, i32 0, i32 3
  store i8 1, ptr %7, align 1
  %8 = load i32, ptr %4, align 4
  %9 = getelementptr inbounds nuw %"class.llvm::Twine", ptr %5, i32 0, i32 0
  store i32 %8, ptr %9, align 8
  ret void
}

; Function Attrs: mustprogress nounwind uwtable
define linkonce_odr hidden void @_ZNK4llvm5Twine6concatERKS0_(ptr dead_on_unwind noalias writable sret(%"class.llvm::Twine") align 8 %0, ptr noundef nonnull align 8 dereferenceable(34) %1, ptr noundef nonnull align 8 dereferenceable(34) %2) #0 comdat align 2 {
  %4 = alloca ptr, align 8
  %5 = alloca ptr, align 8
  %6 = alloca %"union.llvm::Twine::Child", align 8
  %7 = alloca %"union.llvm::Twine::Child", align 8
  %8 = alloca i8, align 1
  %9 = alloca i8, align 1
  %10 = alloca %"union.llvm::Twine::Child", align 8
  %11 = alloca %"union.llvm::Twine::Child", align 8
  store ptr %1, ptr %4, align 8
  store ptr %2, ptr %5, align 8
  %12 = load ptr, ptr %4, align 8
  %13 = call noundef zeroext i1 @_ZNK4llvm5Twine6isNullEv(ptr noundef nonnull align 8 dereferenceable(34) %12)
  br i1 %13, label %17, label %14

14:                                               ; preds = %3
  %15 = load ptr, ptr %5, align 8
  %16 = call noundef zeroext i1 @_ZNK4llvm5Twine6isNullEv(ptr noundef nonnull align 8 dereferenceable(34) %15)
  br i1 %16, label %17, label %18

17:                                               ; preds = %14, %3
  call void @_ZN4llvm5TwineC2ENS0_8NodeKindE(ptr noundef nonnull align 8 dereferenceable(34) %0, i8 noundef zeroext 0)
  br label %51

18:                                               ; preds = %14
  %19 = call noundef zeroext i1 @_ZNK4llvm5Twine7isEmptyEv(ptr noundef nonnull align 8 dereferenceable(34) %12)
  br i1 %19, label %20, label %22

20:                                               ; preds = %18
  %21 = load ptr, ptr %5, align 8
  call void @llvm.memcpy.p0.p0.i64(ptr align 8 %0, ptr align 8 %21, i64 40, i1 false)
  br label %51

22:                                               ; preds = %18
  %23 = load ptr, ptr %5, align 8
  %24 = call noundef zeroext i1 @_ZNK4llvm5Twine7isEmptyEv(ptr noundef nonnull align 8 dereferenceable(34) %23)
  br i1 %24, label %25, label %26

25:                                               ; preds = %22
  call void @llvm.memcpy.p0.p0.i64(ptr align 8 %0, ptr align 8 %12, i64 40, i1 false)
  br label %51

26:                                               ; preds = %22
  store ptr %12, ptr %6, align 8
  %27 = load ptr, ptr %5, align 8
  store ptr %27, ptr %7, align 8
  store i8 2, ptr %8, align 1
  store i8 2, ptr %9, align 1
  %28 = call noundef zeroext i1 @_ZNK4llvm5Twine7isUnaryEv(ptr noundef nonnull align 8 dereferenceable(34) %12)
  br i1 %28, label %29, label %32

29:                                               ; preds = %26
  %30 = getelementptr inbounds nuw %"class.llvm::Twine", ptr %12, i32 0, i32 0
  call void @llvm.memcpy.p0.p0.i64(ptr align 8 %6, ptr align 8 %30, i64 16, i1 false)
  %31 = call noundef zeroext i8 @_ZNK4llvm5Twine10getLHSKindEv(ptr noundef nonnull align 8 dereferenceable(34) %12)
  store i8 %31, ptr %8, align 1
  br label %32

32:                                               ; preds = %29, %26
  %33 = load ptr, ptr %5, align 8
  %34 = call noundef zeroext i1 @_ZNK4llvm5Twine7isUnaryEv(ptr noundef nonnull align 8 dereferenceable(34) %33)
  br i1 %34, label %35, label %40

35:                                               ; preds = %32
  %36 = load ptr, ptr %5, align 8
  %37 = getelementptr inbounds nuw %"class.llvm::Twine", ptr %36, i32 0, i32 0
  call void @llvm.memcpy.p0.p0.i64(ptr align 8 %7, ptr align 8 %37, i64 16, i1 false)
  %38 = load ptr, ptr %5, align 8
  %39 = call noundef zeroext i8 @_ZNK4llvm5Twine10getLHSKindEv(ptr noundef nonnull align 8 dereferenceable(34) %38)
  store i8 %39, ptr %9, align 1
  br label %40

40:                                               ; preds = %35, %32
  call void @llvm.memcpy.p0.p0.i64(ptr align 8 %10, ptr align 8 %6, i64 16, i1 false)
  %41 = load i8, ptr %8, align 1
  call void @llvm.memcpy.p0.p0.i64(ptr align 8 %11, ptr align 8 %7, i64 16, i1 false)
  %42 = load i8, ptr %9, align 1
  %43 = getelementptr inbounds nuw { ptr, i64 }, ptr %10, i32 0, i32 0
  %44 = load ptr, ptr %43, align 8
  %45 = getelementptr inbounds nuw { ptr, i64 }, ptr %10, i32 0, i32 1
  %46 = load i64, ptr %45, align 8
  %47 = getelementptr inbounds nuw { ptr, i64 }, ptr %11, i32 0, i32 0
  %48 = load ptr, ptr %47, align 8
  %49 = getelementptr inbounds nuw { ptr, i64 }, ptr %11, i32 0, i32 1
  %50 = load i64, ptr %49, align 8
  call void @_ZN4llvm5TwineC2ENS0_5ChildENS0_8NodeKindES1_S2_(ptr noundef nonnull align 8 dereferenceable(34) %0, ptr %44, i64 %46, i8 noundef zeroext %41, ptr %48, i64 %50, i8 noundef zeroext %42)
  br label %51

51:                                               ; preds = %40, %25, %20, %17
  ret void
}

; Function Attrs: mustprogress nounwind uwtable
define internal void @_ZL15DefineTypeWidthRKN4llvm5TwineEN5clang23TransferrableTargetInfo7IntTypeERKNS3_10TargetInfoERNS3_12MacroBuilderE(ptr noundef nonnull align 8 dereferenceable(34) %0, i32 noundef %1, ptr noundef nonnull align 8 dereferenceable(489) %2, ptr noundef nonnull align 8 dereferenceable(8) %3) #0 {
  %5 = alloca ptr, align 8
  %6 = alloca i32, align 4
  %7 = alloca ptr, align 8
  %8 = alloca ptr, align 8
  %9 = alloca %"class.llvm::Twine", align 8
  store ptr %0, ptr %5, align 8
  store i32 %1, ptr %6, align 4
  store ptr %2, ptr %7, align 8
  store ptr %3, ptr %8, align 8
  %10 = load ptr, ptr %8, align 8
  %11 = load ptr, ptr %5, align 8
  %12 = load ptr, ptr %7, align 8
  %13 = load i32, ptr %6, align 4
  %14 = call noundef i32 @_ZNK5clang10TargetInfo12getTypeWidthENS_23TransferrableTargetInfo7IntTypeE(ptr noundef nonnull align 8 dereferenceable(489) %12, i32 noundef %13)
  call void @_ZN4llvm5TwineC2Ej(ptr noundef nonnull align 8 dereferenceable(34) %9, i32 noundef %14)
  call void @_ZN5clang12MacroBuilder11defineMacroERKN4llvm5TwineES4_(ptr noundef nonnull align 8 dereferenceable(8) %10, ptr noundef nonnull align 8 dereferenceable(34) %11, ptr noundef nonnull align 8 dereferenceable(34) %9)
  ret void
}

; Function Attrs: mustprogress nounwind uwtable
define linkonce_odr hidden void @_ZN4llvmplERKNS_5TwineES2_(ptr dead_on_unwind noalias writable sret(%"class.llvm::Twine") align 8 %0, ptr noundef nonnull align 8 dereferenceable(34) %1, ptr noundef nonnull align 8 dereferenceable(34) %2) #0 comdat {
  %4 = alloca ptr, align 8
  %5 = alloca ptr, align 8
  store ptr %1, ptr %4, align 8
  store ptr %2, ptr %5, align 8
  %6 = load ptr, ptr %4, align 8
  %7 = load ptr, ptr %5, align 8
  call void @_ZNK4llvm5Twine6concatERKS0_(ptr dead_on_unwind writable sret(%"class.llvm::Twine") align 8 %0, ptr noundef nonnull align 8 dereferenceable(34) %6, ptr noundef nonnull align 8 dereferenceable(34) %7)
  ret void
}

; Function Attrs: mustprogress nounwind uwtable
define linkonce_odr hidden void @_ZN4llvm5TwineC2EPKc(ptr noundef nonnull align 8 dereferenceable(34) %0, ptr noundef %1) unnamed_addr #0 comdat align 2 {
  %3 = alloca ptr, align 8
  %4 = alloca ptr, align 8
  store ptr %0, ptr %3, align 8
  store ptr %1, ptr %4, align 8
  %5 = load ptr, ptr %3, align 8
  %6 = getelementptr inbounds nuw %"class.llvm::Twine", ptr %5, i32 0, i32 2
  store i8 1, ptr %6, align 8
  %7 = getelementptr inbounds nuw %"class.llvm::Twine", ptr %5, i32 0, i32 3
  store i8 1, ptr %7, align 1
  %8 = load ptr, ptr %4, align 8
  %9 = getelementptr inbounds i8, ptr %8, i64 0
  %10 = load i8, ptr %9, align 1
  %11 = sext i8 %10 to i32
  %12 = icmp ne i32 %11, 0
  br i1 %12, label %13, label %17

13:                                               ; preds = %2
  %14 = load ptr, ptr %4, align 8
  %15 = getelementptr inbounds nuw %"class.llvm::Twine", ptr %5, i32 0, i32 0
  store ptr %14, ptr %15, align 8
  %16 = getelementptr inbounds nuw %"class.llvm::Twine", ptr %5, i32 0, i32 2
  store i8 3, ptr %16, align 8
  br label %19

17:                                               ; preds = %2
  %18 = getelementptr inbounds nuw %"class.llvm::Twine", ptr %5, i32 0, i32 2
  store i8 1, ptr %18, align 8
  br label %19

19:                                               ; preds = %17, %13
  ret void
}

; Function Attrs: mustprogress nounwind uwtable
define internal void @_ZL22DefineTypeSizeAndWidthRKN4llvm5TwineEN5clang23TransferrableTargetInfo7IntTypeERKNS3_10TargetInfoERNS3_12MacroBuilderE(ptr noundef nonnull align 8 dereferenceable(34) %0, i32 noundef %1, ptr noundef nonnull align 8 dereferenceable(489) %2, ptr noundef nonnull align 8 dereferenceable(8) %3) #0 {
  %5 = alloca ptr, align 8
  %6 = alloca i32, align 4
  %7 = alloca ptr, align 8
  %8 = alloca ptr, align 8
  %9 = alloca %"class.llvm::Twine", align 8
  %10 = alloca %"class.llvm::Twine", align 8
  %11 = alloca %"class.llvm::Twine", align 8
  %12 = alloca %"class.llvm::Twine", align 8
  store ptr %0, ptr %5, align 8
  store i32 %1, ptr %6, align 4
  store ptr %2, ptr %7, align 8
  store ptr %3, ptr %8, align 8
  %13 = load ptr, ptr %5, align 8
  call void @_ZN4llvm5TwineC2EPKc(ptr noundef nonnull align 8 dereferenceable(34) %10, ptr noundef @.str.43)
  call void @_ZN4llvmplERKNS_5TwineES2_(ptr dead_on_unwind writable sret(%"class.llvm::Twine") align 8 %9, ptr noundef nonnull align 8 dereferenceable(34) %13, ptr noundef nonnull align 8 dereferenceable(34) %10)
  %14 = load i32, ptr %6, align 4
  %15 = load ptr, ptr %7, align 8
  %16 = load ptr, ptr %8, align 8
  call void @_ZL14DefineTypeSizeRKN4llvm5TwineEN5clang23TransferrableTargetInfo7IntTypeERKNS3_10TargetInfoERNS3_12MacroBuilderE(ptr noundef nonnull align 8 dereferenceable(34) %9, i32 noundef %14, ptr noundef nonnull align 8 dereferenceable(489) %15, ptr noundef nonnull align 8 dereferenceable(8) %16)
  %17 = load ptr, ptr %5, align 8
  call void @_ZN4llvm5TwineC2EPKc(ptr noundef nonnull align 8 dereferenceable(34) %12, ptr noundef @.str.441)
  call void @_ZN4llvmplERKNS_5TwineES2_(ptr dead_on_unwind writable sret(%"class.llvm::Twine") align 8 %11, ptr noundef nonnull align 8 dereferenceable(34) %17, ptr noundef nonnull align 8 dereferenceable(34) %12)
  %18 = load i32, ptr %6, align 4
  %19 = load ptr, ptr %7, align 8
  %20 = load ptr, ptr %8, align 8
  call void @_ZL15DefineTypeWidthRKN4llvm5TwineEN5clang23TransferrableTargetInfo7IntTypeERKNS3_10TargetInfoERNS3_12MacroBuilderE(ptr noundef nonnull align 8 dereferenceable(34) %11, i32 noundef %18, ptr noundef nonnull align 8 dereferenceable(489) %19, ptr noundef nonnull align 8 dereferenceable(8) %20)
  ret void
}