; Function Attrs: mustprogress nounwind uwtable
define internal fastcc void @_ZL22DefineTypeSizeAndWidthRKN4llvm5TwineEN5clang23TransferrableTargetInfo7IntTypeERKNS3_10TargetInfoERNS3_12MacroBuilderE(ptr noundef nonnull align 8 dereferenceable(34) %0, i32 noundef %1, ptr noundef nonnull align 8 dereferenceable(489) %2, ptr noundef nonnull align 8 dereferenceable(8) %3) unnamed_addr #0 {
  %5 = alloca %"class.llvm::Twine", align 8
  %6 = alloca %"class.llvm::Twine", align 8
  %7 = alloca %"class.llvm::Twine", align 8
  tail call void @llvm.experimental.noalias.scope.decl(metadata !148)
  tail call void @llvm.experimental.noalias.scope.decl(metadata !151)
  %8 = getelementptr inbounds nuw i8, ptr %0, i64 32
  %9 = load i8, ptr %8, align 8, !noalias !154
  switch i8 %9, label %11 [
    i8 0, label %_ZN4llvmplERKNS_5TwineES2_.exit
    i8 1, label %10
  ]

10:                                               ; preds = %4
  store ptr @.str.43, ptr %6, align 8
  br label %_ZN4llvmplERKNS_5TwineES2_.exit

11:                                               ; preds = %4
  %12 = getelementptr inbounds nuw i8, ptr %0, i64 33
  %13 = load i8, ptr %12, align 1, !noalias !154
  %14 = icmp eq i8 %13, 1
  %.sroa.05.0.copyload.i.i = load ptr, ptr %0, align 8, !noalias !154
  %.sroa.36.0..sroa_idx.i.i = getelementptr inbounds nuw i8, ptr %0, i64 8
  %.sroa.36.0.copyload.i.i = load i64, ptr %.sroa.36.0..sroa_idx.i.i, align 8, !noalias !154
  %.014.i.i = select i1 %14, i8 %9, i8 2
  %.sroa.05.0.i.i = select i1 %14, ptr %.sroa.05.0.copyload.i.i, ptr %0
  %.sroa.36.0.i.i = select i1 %14, i64 %.sroa.36.0.copyload.i.i, i64 undef
  store ptr %.sroa.05.0.i.i, ptr %6, align 8, !alias.scope !154
  %.sroa.23.0..sroa_idx.i.i.i = getelementptr inbounds nuw i8, ptr %6, i64 8
  store i64 %.sroa.36.0.i.i, ptr %.sroa.23.0..sroa_idx.i.i.i, align 8, !alias.scope !154
  %15 = getelementptr inbounds nuw i8, ptr %6, i64 16
  store ptr @.str.43, ptr %15, align 8, !alias.scope !154
  br label %_ZN4llvmplERKNS_5TwineES2_.exit

_ZN4llvmplERKNS_5TwineES2_.exit:                  ; preds = %4, %10, %11
  %.sink30 = phi i8 [ 3, %10 ], [ %.014.i.i, %11 ], [ %9, %4 ]
  %.sink = phi i8 [ 1, %10 ], [ 3, %11 ], [ 1, %4 ]
  %16 = getelementptr inbounds nuw i8, ptr %6, i64 32
  store i8 %.sink30, ptr %16, align 8
  %17 = getelementptr inbounds nuw i8, ptr %6, i64 33
  store i8 %.sink, ptr %17, align 1
  call fastcc void @_ZL14DefineTypeSizeRKN4llvm5TwineEN5clang23TransferrableTargetInfo7IntTypeERKNS3_10TargetInfoERNS3_12MacroBuilderE(ptr noundef nonnull align 8 dereferenceable(34) %6, i32 noundef %1, ptr noundef nonnull align 8 dereferenceable(489) %2, ptr noundef nonnull align 8 dereferenceable(8) %3)
  call void @llvm.experimental.noalias.scope.decl(metadata !155)
  call void @llvm.experimental.noalias.scope.decl(metadata !158)
  %18 = load i8, ptr %8, align 8, !noalias !161
  switch i8 %18, label %20 [
    i8 0, label %_ZN4llvmplERKNS_5TwineES2_.exit21
    i8 1, label %19
  ]

19:                                               ; preds = %_ZN4llvmplERKNS_5TwineES2_.exit
  store ptr @.str.441, ptr %7, align 8
  br label %_ZN4llvmplERKNS_5TwineES2_.exit21

20:                                               ; preds = %_ZN4llvmplERKNS_5TwineES2_.exit
  %21 = getelementptr inbounds nuw i8, ptr %0, i64 33
  %22 = load i8, ptr %21, align 1, !noalias !161
  %23 = icmp eq i8 %22, 1
  %.sroa.05.0.copyload.i.i7 = load ptr, ptr %0, align 8, !noalias !161
  %.sroa.36.0..sroa_idx.i.i8 = getelementptr inbounds nuw i8, ptr %0, i64 8
  %.sroa.36.0.copyload.i.i9 = load i64, ptr %.sroa.36.0..sroa_idx.i.i8, align 8, !noalias !161
  %.014.i.i10 = select i1 %23, i8 %18, i8 2
  %.sroa.05.0.i.i11 = select i1 %23, ptr %.sroa.05.0.copyload.i.i7, ptr %0
  %.sroa.36.0.i.i12 = select i1 %23, i64 %.sroa.36.0.copyload.i.i9, i64 undef
  store ptr %.sroa.05.0.i.i11, ptr %7, align 8, !alias.scope !161
  %.sroa.23.0..sroa_idx.i.i.i19 = getelementptr inbounds nuw i8, ptr %7, i64 8
  store i64 %.sroa.36.0.i.i12, ptr %.sroa.23.0..sroa_idx.i.i.i19, align 8, !alias.scope !161
  %24 = getelementptr inbounds nuw i8, ptr %7, i64 16
  store ptr @.str.441, ptr %24, align 8, !alias.scope !161
  br label %_ZN4llvmplERKNS_5TwineES2_.exit21

_ZN4llvmplERKNS_5TwineES2_.exit21:                ; preds = %_ZN4llvmplERKNS_5TwineES2_.exit, %19, %20
  %.sink34 = phi i8 [ 3, %19 ], [ %.014.i.i10, %20 ], [ %18, %_ZN4llvmplERKNS_5TwineES2_.exit ]
  %.sink32 = phi i8 [ 1, %19 ], [ 3, %20 ], [ 1, %_ZN4llvmplERKNS_5TwineES2_.exit ]
  %25 = getelementptr inbounds nuw i8, ptr %7, i64 32
  store i8 %.sink34, ptr %25, align 8
  %26 = getelementptr inbounds nuw i8, ptr %7, i64 33
  store i8 %.sink32, ptr %26, align 1
  call void @llvm.lifetime.start.p0(i64 40, ptr nonnull %5)
  %27 = call noundef i32 @_ZNK5clang10TargetInfo12getTypeWidthENS_23TransferrableTargetInfo7IntTypeE(ptr noundef nonnull align 8 dereferenceable(489) %2, i32 noundef %1) #13
  %28 = getelementptr inbounds nuw i8, ptr %5, i64 32
  store i8 9, ptr %28, align 8
  %29 = getelementptr inbounds nuw i8, ptr %5, i64 33
  store i8 1, ptr %29, align 1
  store i32 %27, ptr %5, align 8
  call void @_ZN5clang12MacroBuilder11defineMacroERKN4llvm5TwineES4_(ptr noundef nonnull align 8 dereferenceable(8) %3, ptr noundef nonnull align 8 dereferenceable(34) %7, ptr noundef nonnull align 8 dereferenceable(34) %5)
  call void @llvm.lifetime.end.p0(i64 40, ptr nonnull %5)
  ret void
}